; ModuleID = '55/495.c'
source_filename = "55/495.c"
target datalayout = "e-m:e-p270:32:32-p271:32:32-p272:64:64-i64:64-f80:128-n8:16:32:64-S128"
target triple = "x86_64-pc-linux-gnu"

@.str = private unnamed_addr constant [7 x i8] c"%d%s%d\00", align 1
@.str.1 = private unnamed_addr constant [2 x i8] c"0\00", align 1
@.str.2 = private unnamed_addr constant [3 x i8] c"%c\00", align 1

; Function Attrs: noinline nounwind uwtable
define dso_local void @main() #0 {
  %1 = alloca i32, align 4
  %2 = alloca i32, align 4
  %3 = alloca i32, align 4
  %4 = alloca i32, align 4
  %5 = alloca i32, align 4
  %6 = alloca i32, align 4
  %7 = alloca i32, align 4
  %8 = alloca [100 x i8], align 16
  %9 = alloca [100 x i8], align 16
  %10 = alloca [100 x i32], align 16
  %11 = alloca [100 x i32], align 16
  store i32 0, i32* %1, align 4
  store i32 0, i32* %2, align 4
  store i32 0, i32* %3, align 4
  store i32 0, i32* %4, align 4
  store i32 0, i32* %6, align 4
  %12 = bitcast [100 x i8]* %8 to i8*
  call void @llvm.memset.p0i8.i64(i8* align 16 %12, i8 0, i64 100, i1 false)
  %13 = bitcast [100 x i8]* %9 to i8*
  call void @llvm.memset.p0i8.i64(i8* align 16 %13, i8 0, i64 100, i1 false)
  %14 = bitcast [100 x i32]* %10 to i8*
  call void @llvm.memset.p0i8.i64(i8* align 16 %14, i8 0, i64 400, i1 false)
  %15 = bitcast [100 x i32]* %11 to i8*
  call void @llvm.memset.p0i8.i64(i8* align 16 %15, i8 0, i64 400, i1 false)
  %16 = getelementptr inbounds [100 x i8], [100 x i8]* %8, i64 0, i64 0
  %17 = call i32 (i8*, ...) @__isoc99_scanf(i8* getelementptr inbounds ([7 x i8], [7 x i8]* @.str, i64 0, i64 0), i32* %1, i8* %16, i32* %2)
  %18 = getelementptr inbounds [100 x i8], [100 x i8]* %8, i64 0, i64 0
  %19 = call i64 @strlen(i8* %18) #5
  %20 = trunc i64 %19 to i32
  store i32 %20, i32* %3, align 4
  store i32 0, i32* %5, align 4
  br label %21

21:                                               ; preds = %100, %0
  %22 = load i32, i32* %5, align 4
  %23 = load i32, i32* %3, align 4
  %24 = icmp slt i32 %22, %23
  br i1 %24, label %25, label %103

25:                                               ; preds = %21
  %26 = load i32, i32* %5, align 4
  %27 = sext i32 %26 to i64
  %28 = getelementptr inbounds [100 x i8], [100 x i8]* %8, i64 0, i64 %27
  %29 = load i8, i8* %28, align 1
  %30 = sext i8 %29 to i32
  %31 = icmp sgt i32 %30, 96
  br i1 %31, label %32, label %43

32:                                               ; preds = %25
  %33 = load i32, i32* %5, align 4
  %34 = sext i32 %33 to i64
  %35 = getelementptr inbounds [100 x i8], [100 x i8]* %8, i64 0, i64 %34
  %36 = load i8, i8* %35, align 1
  %37 = sext i8 %36 to i32
  %38 = sub nsw i32 %37, 32
  %39 = trunc i32 %38 to i8
  %40 = load i32, i32* %5, align 4
  %41 = sext i32 %40 to i64
  %42 = getelementptr inbounds [100 x i8], [100 x i8]* %8, i64 0, i64 %41
  store i8 %39, i8* %42, align 1
  br label %43

43:                                               ; preds = %32, %25
  %44 = load i32, i32* %5, align 4
  %45 = sext i32 %44 to i64
  %46 = getelementptr inbounds [100 x i8], [100 x i8]* %8, i64 0, i64 %45
  %47 = load i8, i8* %46, align 1
  %48 = sext i8 %47 to i32
  %49 = icmp sgt i32 %48, 64
  br i1 %49, label %50, label %67

50:                                               ; preds = %43
  %51 = load i32, i32* %5, align 4
  %52 = sext i32 %51 to i64
  %53 = getelementptr inbounds [100 x i8], [100 x i8]* %8, i64 0, i64 %52
  %54 = load i8, i8* %53, align 1
  %55 = sext i8 %54 to i32
  %56 = icmp slt i32 %55, 91
  br i1 %56, label %57, label %67

57:                                               ; preds = %50
  %58 = load i32, i32* %5, align 4
  %59 = sext i32 %58 to i64
  %60 = getelementptr inbounds [100 x i8], [100 x i8]* %8, i64 0, i64 %59
  %61 = load i8, i8* %60, align 1
  %62 = sext i8 %61 to i32
  %63 = sub nsw i32 %62, 55
  %64 = load i32, i32* %5, align 4
  %65 = sext i32 %64 to i64
  %66 = getelementptr inbounds [100 x i32], [100 x i32]* %10, i64 0, i64 %65
  store i32 %63, i32* %66, align 4
  br label %67

67:                                               ; preds = %57, %50, %43
  %68 = load i32, i32* %5, align 4
  %69 = sext i32 %68 to i64
  %70 = getelementptr inbounds [100 x i8], [100 x i8]* %8, i64 0, i64 %69
  %71 = load i8, i8* %70, align 1
  %72 = sext i8 %71 to i32
  %73 = icmp sgt i32 %72, 47
  br i1 %73, label %74, label %91

74:                                               ; preds = %67
  %75 = load i32, i32* %5, align 4
  %76 = sext i32 %75 to i64
  %77 = getelementptr inbounds [100 x i8], [100 x i8]* %8, i64 0, i64 %76
  %78 = load i8, i8* %77, align 1
  %79 = sext i8 %78 to i32
  %80 = icmp slt i32 %79, 59
  br i1 %80, label %81, label %91

81:                                               ; preds = %74
  %82 = load i32, i32* %5, align 4
  %83 = sext i32 %82 to i64
  %84 = getelementptr inbounds [100 x i8], [100 x i8]* %8, i64 0, i64 %83
  %85 = load i8, i8* %84, align 1
  %86 = sext i8 %85 to i32
  %87 = sub nsw i32 %86, 48
  %88 = load i32, i32* %5, align 4
  %89 = sext i32 %88 to i64
  %90 = getelementptr inbounds [100 x i32], [100 x i32]* %10, i64 0, i64 %89
  store i32 %87, i32* %90, align 4
  br label %91

91:                                               ; preds = %81, %74, %67
  %92 = load i32, i32* %4, align 4
  %93 = load i32, i32* %1, align 4
  %94 = mul nsw i32 %92, %93
  %95 = load i32, i32* %5, align 4
  %96 = sext i32 %95 to i64
  %97 = getelementptr inbounds [100 x i32], [100 x i32]* %10, i64 0, i64 %96
  %98 = load i32, i32* %97, align 4
  %99 = add nsw i32 %94, %98
  store i32 %99, i32* %4, align 4
  br label %100

100:                                              ; preds = %91
  %101 = load i32, i32* %5, align 4
  %102 = add nsw i32 %101, 1
  store i32 %102, i32* %5, align 4
  br label %21

103:                                              ; preds = %21
  %104 = load i32, i32* %4, align 4
  %105 = icmp eq i32 %104, 0
  br i1 %105, label %106, label %108

106:                                              ; preds = %103
  %107 = call i32 (i8*, ...) @printf(i8* getelementptr inbounds ([2 x i8], [2 x i8]* @.str.1, i64 0, i64 0))
  br label %108

108:                                              ; preds = %106, %103
  store i32 0, i32* %7, align 4
  br label %109

109:                                              ; preds = %121, %108
  %110 = load i32, i32* %4, align 4
  %111 = load i32, i32* %2, align 4
  %112 = sitofp i32 %111 to double
  %113 = load i32, i32* %7, align 4
  %114 = sitofp i32 %113 to double
  %115 = call double @pow(double %112, double %114) #6
  %116 = fptosi double %115 to i32
  %117 = sdiv i32 %110, %116
  %118 = icmp eq i32 %117, 0
  br i1 %118, label %119, label %120

119:                                              ; preds = %109
  br label %124

120:                                              ; preds = %109
  br label %121

121:                                              ; preds = %120
  %122 = load i32, i32* %7, align 4
  %123 = add nsw i32 %122, 1
  store i32 %123, i32* %7, align 4
  br label %109

124:                                              ; preds = %119
  %125 = load i32, i32* %7, align 4
  %126 = sub nsw i32 %125, 1
  store i32 %126, i32* %5, align 4
  br label %127

127:                                              ; preds = %177, %124
  %128 = load i32, i32* %5, align 4
  %129 = icmp sge i32 %128, 0
  br i1 %129, label %130, label %180

130:                                              ; preds = %127
  %131 = load i32, i32* %4, align 4
  %132 = load i32, i32* %2, align 4
  %133 = srem i32 %131, %132
  %134 = load i32, i32* %5, align 4
  %135 = sext i32 %134 to i64
  %136 = getelementptr inbounds [100 x i32], [100 x i32]* %11, i64 0, i64 %135
  store i32 %133, i32* %136, align 4
  %137 = load i32, i32* %4, align 4
  %138 = load i32, i32* %5, align 4
  %139 = sext i32 %138 to i64
  %140 = getelementptr inbounds [100 x i32], [100 x i32]* %11, i64 0, i64 %139
  %141 = load i32, i32* %140, align 4
  %142 = sub nsw i32 %137, %141
  %143 = load i32, i32* %2, align 4
  %144 = sdiv i32 %142, %143
  store i32 %144, i32* %4, align 4
  %145 = load i32, i32* %5, align 4
  %146 = sext i32 %145 to i64
  %147 = getelementptr inbounds [100 x i32], [100 x i32]* %11, i64 0, i64 %146
  %148 = load i32, i32* %147, align 4
  %149 = icmp slt i32 %148, 10
  br i1 %149, label %150, label %160

150:                                              ; preds = %130
  %151 = load i32, i32* %5, align 4
  %152 = sext i32 %151 to i64
  %153 = getelementptr inbounds [100 x i32], [100 x i32]* %11, i64 0, i64 %152
  %154 = load i32, i32* %153, align 4
  %155 = add nsw i32 %154, 48
  %156 = trunc i32 %155 to i8
  %157 = load i32, i32* %5, align 4
  %158 = sext i32 %157 to i64
  %159 = getelementptr inbounds [100 x i8], [100 x i8]* %9, i64 0, i64 %158
  store i8 %156, i8* %159, align 1
  br label %160

160:                                              ; preds = %150, %130
  %161 = load i32, i32* %5, align 4
  %162 = sext i32 %161 to i64
  %163 = getelementptr inbounds [100 x i32], [100 x i32]* %11, i64 0, i64 %162
  %164 = load i32, i32* %163, align 4
  %165 = icmp sgt i32 %164, 9
  br i1 %165, label %166, label %176

166:                                              ; preds = %160
  %167 = load i32, i32* %5, align 4
  %168 = sext i32 %167 to i64
  %169 = getelementptr inbounds [100 x i32], [100 x i32]* %11, i64 0, i64 %168
  %170 = load i32, i32* %169, align 4
  %171 = add nsw i32 %170, 55
  %172 = trunc i32 %171 to i8
  %173 = load i32, i32* %5, align 4
  %174 = sext i32 %173 to i64
  %175 = getelementptr inbounds [100 x i8], [100 x i8]* %9, i64 0, i64 %174
  store i8 %172, i8* %175, align 1
  br label %176

176:                                              ; preds = %166, %160
  br label %177

177:                                              ; preds = %176
  %178 = load i32, i32* %5, align 4
  %179 = add nsw i32 %178, -1
  store i32 %179, i32* %5, align 4
  br label %127

180:                                              ; preds = %127
  store i32 0, i32* %5, align 4
  br label %181

181:                                              ; preds = %192, %180
  %182 = load i32, i32* %5, align 4
  %183 = load i32, i32* %7, align 4
  %184 = icmp slt i32 %182, %183
  br i1 %184, label %185, label %195

185:                                              ; preds = %181
  %186 = load i32, i32* %5, align 4
  %187 = sext i32 %186 to i64
  %188 = getelementptr inbounds [100 x i8], [100 x i8]* %9, i64 0, i64 %187
  %189 = load i8, i8* %188, align 1
  %190 = sext i8 %189 to i32
  %191 = call i32 (i8*, ...) @printf(i8* getelementptr inbounds ([3 x i8], [3 x i8]* @.str.2, i64 0, i64 0), i32 %190)
  br label %192

192:                                              ; preds = %185
  %193 = load i32, i32* %5, align 4
  %194 = add nsw i32 %193, 1
  store i32 %194, i32* %5, align 4
  br label %181

195:                                              ; preds = %181
  ret void
}

; Function Attrs: argmemonly nounwind willreturn
declare void @llvm.memset.p0i8.i64(i8* nocapture writeonly, i8, i64, i1 immarg) #1

declare dso_local i32 @__isoc99_scanf(i8*, ...) #2

; Function Attrs: nounwind readonly
declare dso_local i64 @strlen(i8*) #3

declare dso_local i32 @printf(i8*, ...) #2

; Function Attrs: nounwind
declare dso_local double @pow(double, double) #4


!llvm.module.flags = !{!0}
!llvm.ident = !{!1}

!0 = !{i32 1, !"wchar_size", i32 4}
!1 = !{!"clang version 10.0.0-4ubuntu1 "}
